
P:/ECSE324/G80_Lab4/main.axf:     file format elf32-littlearm


Disassembly of section .text:

00000000 <__cs3_interrupt_vector>:
   0:	18 f0 9f e5 18 f0 9f e5 18 f0 9f e5 18 f0 9f e5     ................
  10:	18 f0 9f e5 18 f0 9f e5 18 f0 9f e5 18 f0 9f e5     ................
  20:	40 00 00 00 70 09 00 00 74 09 00 00 78 09 00 00     @...p...t...x...
  30:	7c 09 00 00 6c 09 00 00 80 09 00 00 84 09 00 00     |...l...........

00000040 <__cs3_reset>:
  40:	ea000026 	b	e0 <__cs3_start_asm_sim>

00000044 <__cs3_start_c>:
  44:	e59f608c 	ldr	r6, [pc, #140]	; d8 <__cs3_start_c+0x94>
  48:	e3560000 	cmp	r6, #0
  4c:	e92d4080 	push	{r7, lr}
  50:	e2466001 	sub	r6, r6, #1
  54:	0a00001e 	beq	d4 <__cs3_start_c+0x90>
  58:	e59f507c 	ldr	r5, [pc, #124]	; dc <__cs3_start_c+0x98>
  5c:	e3a00000 	mov	r0, #0
  60:	e3a01000 	mov	r1, #0
  64:	e515200c 	ldr	r2, [r5, #-12]
  68:	e515e010 	ldr	lr, [r5, #-16]
  6c:	e5154008 	ldr	r4, [r5, #-8]
  70:	e15e0002 	cmp	lr, r2
  74:	00822004 	addeq	r2, r2, r4
  78:	0a000009 	beq	a4 <__cs3_start_c+0x60>
  7c:	e3540000 	cmp	r4, #0
  80:	0a000007 	beq	a4 <__cs3_start_c+0x60>
  84:	e1a07002 	mov	r7, r2
  88:	e1a0c002 	mov	r12, r2
  8c:	e8be000c 	ldm	lr!, {r2, r3}
  90:	e8ac000c 	stmia	r12!, {r2, r3}
  94:	e067300c 	rsb	r3, r7, r12
  98:	e1540003 	cmp	r4, r3
  9c:	e1a0200c 	mov	r2, r12
  a0:	1afffff9 	bne	8c <__cs3_start_c+0x48>
  a4:	e515e004 	ldr	lr, [r5, #-4]
  a8:	e35e0000 	cmp	lr, #0
  ac:	11a03002 	movne	r3, r2
  b0:	0a000003 	beq	c4 <__cs3_start_c+0x80>
  b4:	e8a30003 	stmia	r3!, {r0, r1}
  b8:	e062c003 	rsb	r12, r2, r3
  bc:	e15e000c 	cmp	lr, r12
  c0:	1afffffb 	bne	b4 <__cs3_start_c+0x70>
  c4:	e2466001 	sub	r6, r6, #1
  c8:	e3760001 	cmn	r6, #1
  cc:	e2855014 	add	r5, r5, #20
  d0:	1affffe3 	bne	64 <__cs3_start_c+0x20>
  d4:	eb00020b 	bl	908 <__cs3_premain>
  d8:	00000001 	.word	0x00000001
  dc:	00000a6c 	.word	0x00000a6c

000000e0 <__cs3_start_asm_sim>:
  e0:	e28f103c 	add	r1, pc, #60	; 0x3c
  e4:	e3a00016 	mov	r0, #22
  e8:	ef123456 	svc	0x00123456
  ec:	e3500000 	cmp	r0, #0
  f0:	ba000008 	blt	118 <__cs3_start_asm_sim+0x38>
  f4:	e59f2028 	ldr	r2, [pc, #40]	; 124 <__cs3_heap_start_ptr>
  f8:	e59fd01c 	ldr	sp, [pc, #28]	; 11c <__cs3_start_asm_sim+0x3c>
  fc:	e5920008 	ldr	r0, [r2, #8]
 100:	e3500000 	cmp	r0, #0
 104:	11a0d000 	movne	sp, r0
 108:	e59f1010 	ldr	r1, [pc, #16]	; 120 <__cs3_start_asm_sim+0x40>
 10c:	e5920004 	ldr	r0, [r2, #4]
 110:	e3500000 	cmp	r0, #0
 114:	15810000 	strne	r0, [r1]
 118:	eaffffc9 	b	44 <__cs3_start_c>
 11c:	3ffffff8 	.word	0x3ffffff8
 120:	00000ea8 	.word	0x00000ea8

00000124 <__cs3_heap_start_ptr>:
 124:	00000ed0 	.word	0x00000ed0

00000128 <_start>:
 128:	e51fd000 	ldr	sp, [pc, #-0]	; 130 <_start+0x8>
 12c:	eaffffc4 	b	44 <__cs3_start_c>
 130:	3ffffff8 	.word	0x3ffffff8

00000134 <deregister_tm_clones>:
 134:	e92d4008 	push	{r3, lr}
 138:	e59f002c 	ldr	r0, [pc, #44]	; 16c <deregister_tm_clones+0x38>
 13c:	e59f302c 	ldr	r3, [pc, #44]	; 170 <deregister_tm_clones+0x3c>
 140:	e0603003 	rsb	r3, r0, r3
 144:	e3530006 	cmp	r3, #6
 148:	8a000001 	bhi	154 <deregister_tm_clones+0x20>
 14c:	e8bd4008 	pop	{r3, lr}
 150:	e12fff1e 	bx	lr
 154:	e59f3018 	ldr	r3, [pc, #24]	; 174 <deregister_tm_clones+0x40>
 158:	e3530000 	cmp	r3, #0
 15c:	0afffffa 	beq	14c <deregister_tm_clones+0x18>
 160:	e1a0e00f 	mov	lr, pc
 164:	e12fff13 	bx	r3
 168:	eafffff7 	b	14c <deregister_tm_clones+0x18>
 16c:	00000eb0 	.word	0x00000eb0
 170:	00000eb3 	.word	0x00000eb3
 174:	00000000 	.word	0x00000000

00000178 <register_tm_clones>:
 178:	e92d4008 	push	{r3, lr}
 17c:	e59f0034 	ldr	r0, [pc, #52]	; 1b8 <register_tm_clones+0x40>
 180:	e59f3034 	ldr	r3, [pc, #52]	; 1bc <register_tm_clones+0x44>
 184:	e0603003 	rsb	r3, r0, r3
 188:	e1a03143 	asr	r3, r3, #2
 18c:	e0833fa3 	add	r3, r3, r3, lsr #31
 190:	e1b010c3 	asrs	r1, r3, #1
 194:	1a000001 	bne	1a0 <register_tm_clones+0x28>
 198:	e8bd4008 	pop	{r3, lr}
 19c:	e12fff1e 	bx	lr
 1a0:	e59f2018 	ldr	r2, [pc, #24]	; 1c0 <register_tm_clones+0x48>
 1a4:	e3520000 	cmp	r2, #0
 1a8:	0afffffa 	beq	198 <register_tm_clones+0x20>
 1ac:	e1a0e00f 	mov	lr, pc
 1b0:	e12fff12 	bx	r2
 1b4:	eafffff7 	b	198 <register_tm_clones+0x20>
 1b8:	00000eb0 	.word	0x00000eb0
 1bc:	00000eb0 	.word	0x00000eb0
 1c0:	00000000 	.word	0x00000000

000001c4 <__do_global_dtors_aux>:
 1c4:	e92d4010 	push	{r4, lr}
 1c8:	e59f402c 	ldr	r4, [pc, #44]	; 1fc <__do_global_dtors_aux+0x38>
 1cc:	e5d43000 	ldrb	r3, [r4]
 1d0:	e3530000 	cmp	r3, #0
 1d4:	1a000006 	bne	1f4 <__do_global_dtors_aux+0x30>
 1d8:	ebffffd5 	bl	134 <deregister_tm_clones>
 1dc:	e59f301c 	ldr	r3, [pc, #28]	; 200 <__do_global_dtors_aux+0x3c>
 1e0:	e3530000 	cmp	r3, #0
 1e4:	159f0018 	ldrne	r0, [pc, #24]	; 204 <__do_global_dtors_aux+0x40>
 1e8:	1320f000 	nopne	{0}
 1ec:	e3a03001 	mov	r3, #1
 1f0:	e5c43000 	strb	r3, [r4]
 1f4:	e8bd4010 	pop	{r4, lr}
 1f8:	e12fff1e 	bx	lr
 1fc:	00000eb0 	.word	0x00000eb0
 200:	00000000 	.word	0x00000000
 204:	00000a10 	.word	0x00000a10

00000208 <frame_dummy>:
 208:	e92d4008 	push	{r3, lr}
 20c:	e59f3034 	ldr	r3, [pc, #52]	; 248 <frame_dummy+0x40>
 210:	e3530000 	cmp	r3, #0
 214:	159f0030 	ldrne	r0, [pc, #48]	; 24c <frame_dummy+0x44>
 218:	159f1030 	ldrne	r1, [pc, #48]	; 250 <frame_dummy+0x48>
 21c:	1320f000 	nopne	{0}
 220:	e59f002c 	ldr	r0, [pc, #44]	; 254 <frame_dummy+0x4c>
 224:	e5903000 	ldr	r3, [r0]
 228:	e3530000 	cmp	r3, #0
 22c:	0a000003 	beq	240 <frame_dummy+0x38>
 230:	e59f3020 	ldr	r3, [pc, #32]	; 258 <frame_dummy+0x50>
 234:	e3530000 	cmp	r3, #0
 238:	11a0e00f 	movne	lr, pc
 23c:	112fff13 	bxne	r3
 240:	e8bd4008 	pop	{r3, lr}
 244:	eaffffcb 	b	178 <register_tm_clones>
 248:	00000000 	.word	0x00000000
 24c:	00000a10 	.word	0x00000a10
 250:	00000eb4 	.word	0x00000eb4
 254:	00000a70 	.word	0x00000a70
 258:	00000000 	.word	0x00000000

0000025c <test_char>:
#include <stdio.h>

#include "./drivers/inc/VGA.h"
#include "./drivers/inc/ps2_keyboard.h"

void test_char() {
 25c:	e92d40f8 	push	{r3, r4, r5, r6, r7, lr}
	int x,y;
	char c = 0;
	
	for (y=0; y <= 59; y++) {
 260:	e3a05000 	mov	r5, #0
#include "./drivers/inc/VGA.h"
#include "./drivers/inc/ps2_keyboard.h"

void test_char() {
	int x,y;
	char c = 0;
 264:	e1a06005 	mov	r6, r5
#include <stdio.h>

#include "./drivers/inc/VGA.h"
#include "./drivers/inc/ps2_keyboard.h"

void test_char() {
 268:	e1a07005 	mov	r7, r5
 26c:	ea00000c 	b	2a4 <test_char+0x48>
 270:	e0862004 	add	r2, r6, r4
	int x,y;
	char c = 0;
	
	for (y=0; y <= 59; y++) {
		for (x=0; x<= 79; x++) {
			VGA_write_char_ASM(x, y, c++);
 274:	e1a00004 	mov	r0, r4
 278:	e1a01005 	mov	r1, r5
 27c:	e6ef2072 	uxtb	r2, r2
 280:	eb00006a 	bl	430 <VGA_write_char_ASM>
void test_char() {
	int x,y;
	char c = 0;
	
	for (y=0; y <= 59; y++) {
		for (x=0; x<= 79; x++) {
 284:	e2844001 	add	r4, r4, #1
 288:	e3540050 	cmp	r4, #80	; 0x50
 28c:	1afffff7 	bne	270 <test_char+0x14>
 290:	e2866050 	add	r6, r6, #80	; 0x50
 294:	e6ef6076 	uxtb	r6, r6

void test_char() {
	int x,y;
	char c = 0;
	
	for (y=0; y <= 59; y++) {
 298:	e2855001 	add	r5, r5, #1
 29c:	e355003c 	cmp	r5, #60	; 0x3c
 2a0:	08bd80f8 	popeq	{r3, r4, r5, r6, r7, pc}
#include <stdio.h>

#include "./drivers/inc/VGA.h"
#include "./drivers/inc/ps2_keyboard.h"

void test_char() {
 2a4:	e1a04007 	mov	r4, r7
 2a8:	eafffff0 	b	270 <test_char+0x14>

000002ac <test_byte>:
			VGA_write_char_ASM(x, y, c++);
		}
	}
}

void test_byte() {
 2ac:	e92d41f0 	push	{r4, r5, r6, r7, r8, lr}
	int x,y;
	char c = 0;
	
	for (y=0; y<= 59; y++) {
 2b0:	e3a06000 	mov	r6, #0
	}
}

void test_byte() {
	int x,y;
	char c = 0;
 2b4:	e1a07006 	mov	r7, r6
			VGA_write_char_ASM(x, y, c++);
		}
	}
}

void test_byte() {
 2b8:	e1a08006 	mov	r8, r6
 2bc:	ea00000d 	b	2f8 <test_byte+0x4c>
	int x,y;
	char c = 0;
	
	for (y=0; y<= 59; y++) {
		for (x=0; x<= 79; x+=3) {
			VGA_write_byte_ASM(x, y, c++);
 2c0:	e2825001 	add	r5, r2, #1
 2c4:	e6ef5075 	uxtb	r5, r5
 2c8:	e1a00004 	mov	r0, r4
 2cc:	e1a01006 	mov	r1, r6
 2d0:	eb000065 	bl	46c <VGA_write_byte_ASM>
void test_byte() {
	int x,y;
	char c = 0;
	
	for (y=0; y<= 59; y++) {
		for (x=0; x<= 79; x+=3) {
 2d4:	e2844003 	add	r4, r4, #3
			VGA_write_byte_ASM(x, y, c++);
 2d8:	e1a02005 	mov	r2, r5
void test_byte() {
	int x,y;
	char c = 0;
	
	for (y=0; y<= 59; y++) {
		for (x=0; x<= 79; x+=3) {
 2dc:	e3540051 	cmp	r4, #81	; 0x51
 2e0:	1afffff6 	bne	2c0 <test_byte+0x14>
 2e4:	e287701b 	add	r7, r7, #27
 2e8:	e6ef7077 	uxtb	r7, r7

void test_byte() {
	int x,y;
	char c = 0;
	
	for (y=0; y<= 59; y++) {
 2ec:	e2866001 	add	r6, r6, #1
 2f0:	e3570054 	cmp	r7, #84	; 0x54
 2f4:	08bd81f0 	popeq	{r4, r5, r6, r7, r8, pc}
			VGA_write_char_ASM(x, y, c++);
		}
	}
}

void test_byte() {
 2f8:	e1a02007 	mov	r2, r7
 2fc:	e1a04008 	mov	r4, r8
 300:	eaffffee 	b	2c0 <test_byte+0x14>

00000304 <test_pixel>:
			VGA_write_byte_ASM(x, y, c++);
		}
	}
}

void test_pixel() {
 304:	e92d40f8 	push	{r3, r4, r5, r6, r7, lr}
	int x,y;
	unsigned short colour = 0;
	
	for (y=0; y<=239; y++) {
 308:	e3a06000 	mov	r6, #0
	}
}

void test_pixel() {
	int x,y;
	unsigned short colour = 0;
 30c:	e1a05006 	mov	r5, r6
			VGA_write_byte_ASM(x, y, c++);
		}
	}
}

void test_pixel() {
 310:	e1a07006 	mov	r7, r6
 314:	ea00000c 	b	34c <test_pixel+0x48>
 318:	e0852004 	add	r2, r5, r4
	int x,y;
	unsigned short colour = 0;
	
	for (y=0; y<=239; y++) {
		for (x=0; x<=319; x++) {
			VGA_draw_point_ASM(x,y,colour++);
 31c:	e1a00004 	mov	r0, r4
 320:	e1a01006 	mov	r1, r6
 324:	e6bf2072 	sxth	r2, r2
 328:	eb000067 	bl	4cc <VGA_draw_point_ASM>
void test_pixel() {
	int x,y;
	unsigned short colour = 0;
	
	for (y=0; y<=239; y++) {
		for (x=0; x<=319; x++) {
 32c:	e2844001 	add	r4, r4, #1
 330:	e3540d05 	cmp	r4, #320	; 0x140
 334:	1afffff7 	bne	318 <test_pixel+0x14>
 338:	e2855d05 	add	r5, r5, #320	; 0x140
 33c:	e6ff5075 	uxth	r5, r5

void test_pixel() {
	int x,y;
	unsigned short colour = 0;
	
	for (y=0; y<=239; y++) {
 340:	e2866001 	add	r6, r6, #1
 344:	e3550b0b 	cmp	r5, #11264	; 0x2c00
 348:	08bd80f8 	popeq	{r3, r4, r5, r6, r7, pc}
			VGA_write_byte_ASM(x, y, c++);
		}
	}
}

void test_pixel() {
 34c:	e1a04007 	mov	r4, r7
 350:	eafffff0 	b	318 <test_pixel+0x14>

00000354 <main>:
			VGA_draw_point_ASM(x,y,colour++);
		}
	}
}

int main() {
 354:	e92d4070 	push	{r4, r5, r6, lr}
	int x = 0;
	int y = 0;
	int ps2 = 0;
	char *data = NULL;
	
	VGA_clear_charbuff_ASM();						// Initially clear screen
 358:	eb000014 	bl	3b0 <VGA_clear_charbuff_ASM>
	VGA_clear_pixelbuff_ASM();
 35c:	eb000023 	bl	3f0 <VGA_clear_pixelbuff_ASM>
	}
	*/
	
	// PART 2 KEYBOARD
	int x = 0;
	int y = 0;
 360:	e3a04000 	mov	r4, #0
		}
	}
	*/
	
	// PART 2 KEYBOARD
	int x = 0;
 364:	e1a05004 	mov	r5, r4
	char *data = NULL;
	
	VGA_clear_charbuff_ASM();						// Initially clear screen
	VGA_clear_pixelbuff_ASM();
	while(1) {
		ps2 = read_PS2_data_ASM(data);				// Get RVALID bit and if it's valid, map PS2 data to data var
 368:	e1a06004 	mov	r6, r4
 36c:	e1a00006 	mov	r0, r6
 370:	eb00008c 	bl	5a8 <read_PS2_data_ASM>
		if (ps2) {
 374:	e3500000 	cmp	r0, #0
 378:	0a000004 	beq	390 <main+0x3c>
			VGA_write_byte_ASM(x, y, *data);		// Write to screen
 37c:	e1a00005 	mov	r0, r5
 380:	e1a01004 	mov	r1, r4
 384:	e5d62000 	ldrb	r2, [r6]
 388:	eb000037 	bl	46c <VGA_write_byte_ASM>
			x += 3;									// increment by 3
 38c:	e2855003 	add	r5, r5, #3
		}
		if (x > 79) {								// Check for x bounds
 390:	e355004f 	cmp	r5, #79	; 0x4f
			x = 0;
			y++;
 394:	c2844001 	addgt	r4, r4, #1
		if (ps2) {
			VGA_write_byte_ASM(x, y, *data);		// Write to screen
			x += 3;									// increment by 3
		}
		if (x > 79) {								// Check for x bounds
			x = 0;
 398:	c1a05006 	movgt	r5, r6
			y++;
		}
		if (y > 59) {								// Check for y bounds
 39c:	e354003b 	cmp	r4, #59	; 0x3b
 3a0:	dafffff1 	ble	36c <main+0x18>
			VGA_clear_charbuff_ASM();				// Clear screen when it's filled out
 3a4:	eb000001 	bl	3b0 <VGA_clear_charbuff_ASM>
			y = 0;									// reset y
 3a8:	e1a04006 	mov	r4, r6
 3ac:	eaffffee 	b	36c <main+0x18>

000003b0 <VGA_clear_charbuff_ASM>:

/*
 *	This method iterates through the character buffer column by column
 */
VGA_clear_charbuff_ASM:
	PUSH {R4-R12} 	
 3b0:	e92d1ff0 	push	{r4, r5, r6, r7, r8, r9, r10, r11, r12}
	MOV R2, #0				// 0 constant stored in R2
 3b4:	e3a02000 	mov	r2, #0
	LDR R3, =VGA_charbuff	// Address of character buffer
 3b8:	e3a034c9 	mov	r3, #-922746880	; 0xc9000000
	MOV R0, #0				// x counter
 3bc:	e3a00000 	mov	r0, #0

000003c0 <X_CHAR_LOOP>:

X_CHAR_LOOP: 
	MOV R1, #0				// Reset y counter
 3c0:	e3a01000 	mov	r1, #0
	ADD R4, R3, R0			// Iterate to next column
 3c4:	e0834000 	add	r4, r3, r0

000003c8 <Y_CHAR_LOOP>:

Y_CHAR_LOOP: 
	ADD R5, R4, R1, LSL #7	// Iterate to next row
 3c8:	e0845381 	add	r5, r4, r1, lsl #7
	
	STRB R2, [R5]			// Clear specific byte
 3cc:	e5c52000 	strb	r2, [r5]
	
	ADD R1, R1, #1			// increment y counter
 3d0:	e2811001 	add	r1, r1, #1
	CMP R1, #60				// check if it's at the bottom of the screen
 3d4:	e351003c 	cmp	r1, #60	; 0x3c
	BLT Y_CHAR_LOOP
 3d8:	bafffffa 	blt	3c8 <Y_CHAR_LOOP>
	
	ADD R0, R0, #1			// increment x counter	
 3dc:	e2800001 	add	r0, r0, #1
	CMP R0, #80				// check if it's at the right of the screen
 3e0:	e3500050 	cmp	r0, #80	; 0x50
	BLT X_CHAR_LOOP
 3e4:	bafffff5 	blt	3c0 <X_CHAR_LOOP>

	POP {R4-R5}
 3e8:	e8bd0030 	pop	{r4, r5}
	BX LR
 3ec:	e12fff1e 	bx	lr

000003f0 <VGA_clear_pixelbuff_ASM>:

/*
 *	This method also iterates column by column but in the pixel buffer
 */
VGA_clear_pixelbuff_ASM:
	PUSH {R4-R5}	
 3f0:	e92d0030 	push	{r4, r5}
	MOV R2, #0						// 0 constant stored in R2
 3f4:	e3a02000 	mov	r2, #0
	LDR R3, =VGA_pixelbuff			// Base address of pixel buffer
 3f8:	e3a03332 	mov	r3, #-939524096	; 0xc8000000
	MOV R0, #0						// x counter
 3fc:	e3a00000 	mov	r0, #0

00000400 <X_PIXEL_LOOP>:

X_PIXEL_LOOP:
	MOV R1, #0						// Reset y counter
 400:	e3a01000 	mov	r1, #0
	ADD R4, R3, R0, LSL #1			// Iterate to next column
 404:	e0834080 	add	r4, r3, r0, lsl #1

00000408 <Y_PIXEL_LOOP>:
Y_PIXEL_LOOP:
	ADD R5, R4, R1, LSL #10			// Iterate to next row
 408:	e0845501 	add	r5, r4, r1, lsl #10
	
	STRH R2, [R5]					// Clear specific pixel
 40c:	e1c520b0 	strh	r2, [r5]
	
	ADD R1, R1, #1					// Increment y counter
 410:	e2811001 	add	r1, r1, #1
	CMP R1, #240					// Check if we're at the bottom of the screen
 414:	e35100f0 	cmp	r1, #240	; 0xf0
	BLT Y_PIXEL_LOOP				// If not, continue incrementing y
 418:	bafffffa 	blt	408 <Y_PIXEL_LOOP>
	
	ADD R0, R0, #1					// If yes, increment x counter
 41c:	e2800001 	add	r0, r0, #1
	CMP R0, #320					// Check if we're done clearing
 420:	e3500d05 	cmp	r0, #320	; 0x140
	BLT X_PIXEL_LOOP
 424:	bafffff5 	blt	400 <X_PIXEL_LOOP>

	POP {R4-R5}
 428:	e8bd0030 	pop	{r4, r5}
	BX LR
 42c:	e12fff1e 	bx	lr

00000430 <VGA_write_char_ASM>:

VGA_write_char_ASM:	
	PUSH {R3-R7}
 430:	e92d00f8 	push	{r3, r4, r5, r6, r7}
	CMP R0, #0			// Check x and y for negative number inputs
 434:	e3500000 	cmp	r0, #0
	BXLT LR
 438:	b12fff1e 	bxlt	lr
	CMP R1, #0
 43c:	e3510000 	cmp	r1, #0
	BXLT LR
 440:	b12fff1e 	bxlt	lr
	CMP R0, #79			// Check for out of bounds input
 444:	e350004f 	cmp	r0, #79	; 0x4f
	BXGT LR
 448:	c12fff1e 	bxgt	lr
	CMP R1, #59
 44c:	e351003b 	cmp	r1, #59	; 0x3b
	BXGT LR
 450:	c12fff1e 	bxgt	lr

	LDR R3, =VGA_charbuff		// Set base address
 454:	e3a034c9 	mov	r3, #-922746880	; 0xc9000000
	ADD R3, R3, R0				// Set x address
 458:	e0833000 	add	r3, r3, r0
	ADD R3, R3, R1, LSL #7		// Set y address
 45c:	e0833381 	add	r3, r3, r1, lsl #7
	STRB R2, [R3]				// Store input to that location
 460:	e5c32000 	strb	r2, [r3]
	POP {R3-R7}
 464:	e8bd00f8 	pop	{r3, r4, r5, r6, r7}
	BX LR
 468:	e12fff1e 	bx	lr

0000046c <VGA_write_byte_ASM>:

VGA_write_byte_ASM:
	PUSH {R3-R7}
 46c:	e92d00f8 	push	{r3, r4, r5, r6, r7}
	CMP R0, #0					// Check x and y for negative inputs
 470:	e3500000 	cmp	r0, #0
	BXLT LR
 474:	b12fff1e 	bxlt	lr
	CMP R1, #0
 478:	e3510000 	cmp	r1, #0
	BXLT LR
 47c:	b12fff1e 	bxlt	lr
	CMP R0, #78					// Check for out of bound inputs
 480:	e350004e 	cmp	r0, #78	; 0x4e
	BXGT LR						// 78 because there must be enough space to write 2 char
 484:	c12fff1e 	bxgt	lr
	CMP R1, #59
 488:	e351003b 	cmp	r1, #59	; 0x3b
	BXGT LR
 48c:	c12fff1e 	bxgt	lr
	
	LDR R3, =VGA_charbuff			// Set base address
 490:	e3a034c9 	mov	r3, #-922746880	; 0xc9000000
	ADD R3, R3, R0					// Set X-address			
 494:	e0833000 	add	r3, r3, r0
	ADD R3, R3, R1, LSL #7			// Add Y-address
 498:	e0833381 	add	r3, r3, r1, lsl #7
									// R3 now holds the address of where we want to write
	LSR R4, R2, #4					// Get most significant hex					
 49c:	e1a04222 	lsr	r4, r2, #4
	AND R5, R2, #0x0F				// Get least significant hex
 4a0:	e202500f 	and	r5, r2, #15
	
	CMP R4, #9						// Check if input is A,B,C,D,E,F
 4a4:	e3540009 	cmp	r4, #9
	ADDGT R4, R4, #7				// Add 7 so that the ASCII value is right
 4a8:	c2844007 	addgt	r4, r4, #7
	CMP R5, #9						
 4ac:	e3550009 	cmp	r5, #9
	ADDGT R5, R5, #7
 4b0:	c2855007 	addgt	r5, r5, #7
	ADD R4, R4, #48					// Add base address of 0 (ASCII value 48)
 4b4:	e2844030 	add	r4, r4, #48	; 0x30
	ADD R5, R5, #48
 4b8:	e2855030 	add	r5, r5, #48	; 0x30
	
	STRB R4, [R3]					// Store most significant hex at input location
 4bc:	e5c34000 	strb	r4, [r3]
	STRB R5, [R3, #1]				// Store least significant hex at input location + 1
 4c0:	e5c35001 	strb	r5, [r3, #1]
	POP {R3-R7}
 4c4:	e8bd00f8 	pop	{r3, r4, r5, r6, r7}
	BX LR
 4c8:	e12fff1e 	bx	lr

000004cc <VGA_draw_point_ASM>:

VGA_draw_point_ASM:
	PUSH {R3}
 4cc:	e52d3004 	push	{r3}		; (str r3, [sp, #-4]!)
	CMP R0, #0					// Check x and y for negative inputs
 4d0:	e3500000 	cmp	r0, #0
	BXLT LR
 4d4:	b12fff1e 	bxlt	lr
	CMP R1, #0
 4d8:	e3510000 	cmp	r1, #0
	BXLT LR
 4dc:	b12fff1e 	bxlt	lr
	LDR R3, =319				// Must use LDR since 319 is too high (overflow)
 4e0:	e59f3024 	ldr	r3, [pc, #36]	; 50c <VGA_draw_point_ASM+0x40>
	CMP R0, R3					// Check for out of bounds input
 4e4:	e1500003 	cmp	r0, r3
	BXGT LR
 4e8:	c12fff1e 	bxgt	lr
	CMP R1, #239
 4ec:	e35100ef 	cmp	r1, #239	; 0xef
	BXGT LR
 4f0:	c12fff1e 	bxgt	lr
	
	LDR R3, =VGA_pixelbuff		// Set base address
 4f4:	e3a03332 	mov	r3, #-939524096	; 0xc8000000
	ADD R3, R3, R0, LSL #1		// Set x address
 4f8:	e0833080 	add	r3, r3, r0, lsl #1
	ADD R3, R3, R1, LSL #10		// Set y address
 4fc:	e0833501 	add	r3, r3, r1, lsl #10
	STRH R2, [R3]				// Write to location
 500:	e1c320b0 	strh	r2, [r3]
	POP {R3}
 504:	e49d3004 	pop	{r3}		; (ldr r3, [sp], #4)
	BX LR
 508:	e12fff1e 	bx	lr
	PUSH {R3}
	CMP R0, #0					// Check x and y for negative inputs
	BXLT LR
	CMP R1, #0
	BXLT LR
	LDR R3, =319				// Must use LDR since 319 is too high (overflow)
 50c:	0000013f 	.word	0x0000013f

00000510 <read_PB_data_ASM>:
 510:	e59f1074 	ldr	r1, [pc, #116]	; 58c <disable_PB_INT_ASM+0x14>
 514:	e5910000 	ldr	r0, [r1]
 518:	e12fff1e 	bx	lr

0000051c <PB_data_is_pressed_ASM>:
 51c:	e59f1068 	ldr	r1, [pc, #104]	; 58c <disable_PB_INT_ASM+0x14>
 520:	e5912000 	ldr	r2, [r1]
 524:	e0000002 	and	r0, r0, r2
 528:	e3300000 	teq	r0, #0
 52c:	13a00001 	movne	r0, #1
 530:	e12fff1e 	bx	lr

00000534 <read_PB_edgecap_ASM>:
 534:	e59f1054 	ldr	r1, [pc, #84]	; 590 <disable_PB_INT_ASM+0x18>
 538:	e5910000 	ldr	r0, [r1]
 53c:	e12fff1e 	bx	lr

00000540 <PB_edgecap_is_pressed_ASM>:
 540:	e59f1048 	ldr	r1, [pc, #72]	; 590 <disable_PB_INT_ASM+0x18>
 544:	e5912000 	ldr	r2, [r1]
 548:	e0000002 	and	r0, r0, r2
 54c:	e3300000 	teq	r0, #0
 550:	13a00001 	movne	r0, #1
 554:	e12fff1e 	bx	lr

00000558 <PB_clear_edgecp_ASM>:
 558:	e59f1030 	ldr	r1, [pc, #48]	; 590 <disable_PB_INT_ASM+0x18>
 55c:	e5810000 	str	r0, [r1]
 560:	e12fff1e 	bx	lr

00000564 <enable_PB_INT_ASM>:
 564:	e59f1028 	ldr	r1, [pc, #40]	; 594 <disable_PB_INT_ASM+0x1c>
 568:	e5912000 	ldr	r2, [r1]
 56c:	e1800002 	orr	r0, r0, r2
 570:	e5810000 	str	r0, [r1]
 574:	e12fff1e 	bx	lr

00000578 <disable_PB_INT_ASM>:
 578:	e59f1014 	ldr	r1, [pc, #20]	; 594 <disable_PB_INT_ASM+0x1c>
 57c:	e5912000 	ldr	r2, [r1]
 580:	e1c00002 	bic	r0, r0, r2
 584:	e5810000 	str	r0, [r1]
 588:	e12fff1e 	bx	lr
 58c:	ff200050 	.word	0xff200050
 590:	ff20005c 	.word	0xff20005c
 594:	ff200058 	.word	0xff200058

00000598 <read_slider_switches_ASM>:
 598:	e59f1004 	ldr	r1, [pc, #4]	; 5a4 <read_slider_switches_ASM+0xc>
 59c:	e5910000 	ldr	r0, [r1]
 5a0:	e12fff1e 	bx	lr
 5a4:	ff200040 	.word	0xff200040

000005a8 <read_PS2_data_ASM>:
	.text
	.equ PS2_Data, 0xFF200100
	.global read_PS2_data_ASM

read_PS2_data_ASM:
	PUSH {R1-R4} 
 5a8:	e92d001e 	push	{r1, r2, r3, r4}
	LDR R1, =PS2_Data				// Load R1 with PS2 data address
 5ac:	e59f1024 	ldr	r1, [pc, #36]	; 5d8 <read_PS2_data_ASM+0x30>
	LDR R3, [R1]					// R3 holds value of PS2_Data
 5b0:	e5913000 	ldr	r3, [r1]
	ANDS R2, R3, #0x00008000		// Get the RVALID bit (bit 15)
 5b4:	e2132902 	ands	r2, r3, #32768	; 0x8000
	MOVEQ R0, #0					// If it's 0, return 0
 5b8:	03a00000 	moveq	r0, #0
	POPEQ {R1-R4}
 5bc:	08bd001e 	popeq	{r1, r2, r3, r4}
	BXEQ LR
 5c0:	012fff1e 	bxeq	lr
									// If it's 1,
	AND R2, R3, #0x000000FF			// Get data from PS2 data address (first 8 bits)
 5c4:	e20320ff 	and	r2, r3, #255	; 0xff
	STR R2, [R0]					// Store data to input pointer value
 5c8:	e5802000 	str	r2, [r0]
	MOV R0, #1						// return 1
 5cc:	e3a00001 	mov	r0, #1
	POP {R1-R4}
 5d0:	e8bd001e 	pop	{r1, r2, r3, r4}
	BX LR  
 5d4:	e12fff1e 	bx	lr
	.equ PS2_Data, 0xFF200100
	.global read_PS2_data_ASM

read_PS2_data_ASM:
	PUSH {R1-R4} 
	LDR R1, =PS2_Data				// Load R1 with PS2 data address
 5d8:	ff200100 	.word	0xff200100

000005dc <atexit>:
 5dc:	e1a01000 	mov	r1, r0
 5e0:	e3a00000 	mov	r0, #0
 5e4:	e92d4008 	push	{r3, lr}
 5e8:	e1a02000 	mov	r2, r0
 5ec:	e1a03000 	mov	r3, r0
 5f0:	eb00000e 	bl	630 <__register_exitproc>
 5f4:	e8bd4008 	pop	{r3, lr}
 5f8:	e12fff1e 	bx	lr

000005fc <exit>:
 5fc:	e92d4008 	push	{r3, lr}
 600:	e3a01000 	mov	r1, #0
 604:	e1a04000 	mov	r4, r0
 608:	eb000045 	bl	724 <__call_exitprocs>
 60c:	e59f3018 	ldr	r3, [pc, #24]	; 62c <exit+0x30>
 610:	e5930000 	ldr	r0, [r3]
 614:	e590303c 	ldr	r3, [r0, #60]	; 0x3c
 618:	e3530000 	cmp	r3, #0
 61c:	11a0e00f 	movne	lr, pc
 620:	112fff13 	bxne	r3
 624:	e1a00004 	mov	r0, r4
 628:	eb0000c9 	bl	954 <_exit>
 62c:	00000a14 	.word	0x00000a14

00000630 <__register_exitproc>:
 630:	e59fc0e4 	ldr	r12, [pc, #228]	; 71c <__register_exitproc+0xec>
 634:	e92d41f0 	push	{r4, r5, r6, r7, r8, lr}
 638:	e59c4000 	ldr	r4, [r12]
 63c:	e594c148 	ldr	r12, [r4, #328]	; 0x148
 640:	e35c0000 	cmp	r12, #0
 644:	0284cf53 	addeq	r12, r4, #332	; 0x14c
 648:	e59c5004 	ldr	r5, [r12, #4]
 64c:	0584c148 	streq	r12, [r4, #328]	; 0x148
 650:	e355001f 	cmp	r5, #31
 654:	e24dd010 	sub	sp, sp, #16
 658:	e1a06000 	mov	r6, r0
 65c:	da000015 	ble	6b8 <__register_exitproc+0x88>
 660:	e59f00b8 	ldr	r0, [pc, #184]	; 720 <__register_exitproc+0xf0>
 664:	e3500000 	cmp	r0, #0
 668:	1a000001 	bne	674 <__register_exitproc+0x44>
 66c:	e3e00000 	mvn	r0, #0
 670:	ea000018 	b	6d8 <__register_exitproc+0xa8>
 674:	e3a00e19 	mov	r0, #400	; 0x190
 678:	e58d100c 	str	r1, [sp, #12]
 67c:	e58d2008 	str	r2, [sp, #8]
 680:	e58d3004 	str	r3, [sp, #4]
 684:	e320f000 	nop	{0}
 688:	e250c000 	subs	r12, r0, #0
 68c:	e59d100c 	ldr	r1, [sp, #12]
 690:	e59d2008 	ldr	r2, [sp, #8]
 694:	e59d3004 	ldr	r3, [sp, #4]
 698:	0afffff3 	beq	66c <__register_exitproc+0x3c>
 69c:	e5945148 	ldr	r5, [r4, #328]	; 0x148
 6a0:	e3a00000 	mov	r0, #0
 6a4:	e58c0004 	str	r0, [r12, #4]
 6a8:	e58c5000 	str	r5, [r12]
 6ac:	e584c148 	str	r12, [r4, #328]	; 0x148
 6b0:	e58c0188 	str	r0, [r12, #392]	; 0x188
 6b4:	e58c018c 	str	r0, [r12, #396]	; 0x18c
 6b8:	e3560000 	cmp	r6, #0
 6bc:	e59c4004 	ldr	r4, [r12, #4]
 6c0:	1a000007 	bne	6e4 <__register_exitproc+0xb4>
 6c4:	e2843002 	add	r3, r4, #2
 6c8:	e2844001 	add	r4, r4, #1
 6cc:	e78c1103 	str	r1, [r12, r3, lsl #2]
 6d0:	e58c4004 	str	r4, [r12, #4]
 6d4:	e3a00000 	mov	r0, #0
 6d8:	e28dd010 	add	sp, sp, #16
 6dc:	e8bd41f0 	pop	{r4, r5, r6, r7, r8, lr}
 6e0:	e12fff1e 	bx	lr
 6e4:	e3a00001 	mov	r0, #1
 6e8:	e1a00410 	lsl	r0, r0, r4
 6ec:	e08c8104 	add	r8, r12, r4, lsl #2
 6f0:	e3560002 	cmp	r6, #2
 6f4:	e59c7188 	ldr	r7, [r12, #392]	; 0x188
 6f8:	e5883108 	str	r3, [r8, #264]	; 0x108
 6fc:	059c318c 	ldreq	r3, [r12, #396]	; 0x18c
 700:	e1877000 	orr	r7, r7, r0
 704:	01830000 	orreq	r0, r3, r0
 708:	e1a05008 	mov	r5, r8
 70c:	e5882088 	str	r2, [r8, #136]	; 0x88
 710:	e58c7188 	str	r7, [r12, #392]	; 0x188
 714:	058c018c 	streq	r0, [r12, #396]	; 0x18c
 718:	eaffffe9 	b	6c4 <__register_exitproc+0x94>
 71c:	00000a14 	.word	0x00000a14
 720:	00000000 	.word	0x00000000

00000724 <__call_exitprocs>:
 724:	e92d4ff0 	push	{r4, r5, r6, r7, r8, r9, r10, r11, lr}
 728:	e59f3168 	ldr	r3, [pc, #360]	; 898 <__call_exitprocs+0x174>
 72c:	e5933000 	ldr	r3, [r3]
 730:	e24dd014 	sub	sp, sp, #20
 734:	e58d3004 	str	r3, [sp, #4]
 738:	e2833f52 	add	r3, r3, #328	; 0x148
 73c:	e58d0008 	str	r0, [sp, #8]
 740:	e58d300c 	str	r3, [sp, #12]
 744:	e1a07001 	mov	r7, r1
 748:	e3a08001 	mov	r8, #1
 74c:	e59d3004 	ldr	r3, [sp, #4]
 750:	e5936148 	ldr	r6, [r3, #328]	; 0x148
 754:	e3560000 	cmp	r6, #0
 758:	e59db00c 	ldr	r11, [sp, #12]
 75c:	0a000033 	beq	830 <__call_exitprocs+0x10c>
 760:	e5965004 	ldr	r5, [r6, #4]
 764:	e2554001 	subs	r4, r5, #1
 768:	5286a088 	addpl	r10, r6, #136	; 0x88
 76c:	5285501f 	addpl	r5, r5, #31
 770:	508a5105 	addpl	r5, r10, r5, lsl #2
 774:	5a000007 	bpl	798 <__call_exitprocs+0x74>
 778:	ea000029 	b	824 <__call_exitprocs+0x100>
 77c:	e5953000 	ldr	r3, [r5]
 780:	e1530007 	cmp	r3, r7
 784:	0a000005 	beq	7a0 <__call_exitprocs+0x7c>
 788:	e2444001 	sub	r4, r4, #1
 78c:	e3740001 	cmn	r4, #1
 790:	e2455004 	sub	r5, r5, #4
 794:	0a000022 	beq	824 <__call_exitprocs+0x100>
 798:	e3570000 	cmp	r7, #0
 79c:	1afffff6 	bne	77c <__call_exitprocs+0x58>
 7a0:	e5963004 	ldr	r3, [r6, #4]
 7a4:	e06a2005 	rsb	r2, r10, r5
 7a8:	e2433001 	sub	r3, r3, #1
 7ac:	e0862002 	add	r2, r6, r2
 7b0:	e1530004 	cmp	r3, r4
 7b4:	e5123078 	ldr	r3, [r2, #-120]	; 0xffffff88
 7b8:	13a01000 	movne	r1, #0
 7bc:	05864004 	streq	r4, [r6, #4]
 7c0:	15021078 	strne	r1, [r2, #-120]	; 0xffffff88
 7c4:	e3530000 	cmp	r3, #0
 7c8:	0affffee 	beq	788 <__call_exitprocs+0x64>
 7cc:	e1a02418 	lsl	r2, r8, r4
 7d0:	e5961188 	ldr	r1, [r6, #392]	; 0x188
 7d4:	e1120001 	tst	r2, r1
 7d8:	e5969004 	ldr	r9, [r6, #4]
 7dc:	0a000016 	beq	83c <__call_exitprocs+0x118>
 7e0:	e596118c 	ldr	r1, [r6, #396]	; 0x18c
 7e4:	e1120001 	tst	r2, r1
 7e8:	1a000016 	bne	848 <__call_exitprocs+0x124>
 7ec:	e59d0008 	ldr	r0, [sp, #8]
 7f0:	e5151080 	ldr	r1, [r5, #-128]	; 0xffffff80
 7f4:	e1a0e00f 	mov	lr, pc
 7f8:	e12fff13 	bx	r3
 7fc:	e5963004 	ldr	r3, [r6, #4]
 800:	e1530009 	cmp	r3, r9
 804:	1affffd0 	bne	74c <__call_exitprocs+0x28>
 808:	e59b3000 	ldr	r3, [r11]
 80c:	e1530006 	cmp	r3, r6
 810:	1affffcd 	bne	74c <__call_exitprocs+0x28>
 814:	e2444001 	sub	r4, r4, #1
 818:	e3740001 	cmn	r4, #1
 81c:	e2455004 	sub	r5, r5, #4
 820:	1affffdc 	bne	798 <__call_exitprocs+0x74>
 824:	e59f1070 	ldr	r1, [pc, #112]	; 89c <__call_exitprocs+0x178>
 828:	e3510000 	cmp	r1, #0
 82c:	1a000009 	bne	858 <__call_exitprocs+0x134>
 830:	e28dd014 	add	sp, sp, #20
 834:	e8bd4ff0 	pop	{r4, r5, r6, r7, r8, r9, r10, r11, lr}
 838:	e12fff1e 	bx	lr
 83c:	e1a0e00f 	mov	lr, pc
 840:	e12fff13 	bx	r3
 844:	eaffffec 	b	7fc <__call_exitprocs+0xd8>
 848:	e5150080 	ldr	r0, [r5, #-128]	; 0xffffff80
 84c:	e1a0e00f 	mov	lr, pc
 850:	e12fff13 	bx	r3
 854:	eaffffe8 	b	7fc <__call_exitprocs+0xd8>
 858:	e5963004 	ldr	r3, [r6, #4]
 85c:	e3530000 	cmp	r3, #0
 860:	e5963000 	ldr	r3, [r6]
 864:	1a000008 	bne	88c <__call_exitprocs+0x168>
 868:	e3530000 	cmp	r3, #0
 86c:	0a000006 	beq	88c <__call_exitprocs+0x168>
 870:	e1a00006 	mov	r0, r6
 874:	e58b3000 	str	r3, [r11]
 878:	e320f000 	nop	{0}
 87c:	e59b6000 	ldr	r6, [r11]
 880:	e3560000 	cmp	r6, #0
 884:	1affffb5 	bne	760 <__call_exitprocs+0x3c>
 888:	eaffffe8 	b	830 <__call_exitprocs+0x10c>
 88c:	e1a0b006 	mov	r11, r6
 890:	e1a06003 	mov	r6, r3
 894:	eafffff9 	b	880 <__call_exitprocs+0x15c>
 898:	00000a14 	.word	0x00000a14
 89c:	00000000 	.word	0x00000000

000008a0 <register_fini>:
 8a0:	e92d4008 	push	{r3, lr}
 8a4:	e59f3010 	ldr	r3, [pc, #16]	; 8bc <register_fini+0x1c>
 8a8:	e3530000 	cmp	r3, #0
 8ac:	159f000c 	ldrne	r0, [pc, #12]	; 8c0 <register_fini+0x20>
 8b0:	1bffff49 	blne	5dc <atexit>
 8b4:	e8bd4008 	pop	{r3, lr}
 8b8:	e12fff1e 	bx	lr
 8bc:	00000a3c 	.word	0x00000a3c
 8c0:	000008c4 	.word	0x000008c4

000008c4 <__libc_fini_array>:
 8c4:	e92d4038 	push	{r3, r4, r5, lr}
 8c8:	e59f5030 	ldr	r5, [pc, #48]	; 900 <__libc_fini_array+0x3c>
 8cc:	e59f4030 	ldr	r4, [pc, #48]	; 904 <__libc_fini_array+0x40>
 8d0:	e0654004 	rsb	r4, r5, r4
 8d4:	e1b04144 	asrs	r4, r4, #2
 8d8:	10855104 	addne	r5, r5, r4, lsl #2
 8dc:	0a000004 	beq	8f4 <__libc_fini_array+0x30>
 8e0:	e5353004 	ldr	r3, [r5, #-4]!
 8e4:	e1a0e00f 	mov	lr, pc
 8e8:	e12fff13 	bx	r3
 8ec:	e2544001 	subs	r4, r4, #1
 8f0:	1afffffa 	bne	8e0 <__libc_fini_array+0x1c>
 8f4:	eb000050 	bl	a3c <__libc_fini>
 8f8:	e8bd4038 	pop	{r3, r4, r5, lr}
 8fc:	e12fff1e 	bx	lr
 900:	00000a54 	.word	0x00000a54
 904:	00000a58 	.word	0x00000a58

00000908 <__cs3_premain>:
 908:	e92d4008 	push	{r3, lr}
 90c:	eb00001d 	bl	988 <__libc_init_array>
 910:	e59f3030 	ldr	r3, [pc, #48]	; 948 <__cs3_premain+0x40>
 914:	e3530000 	cmp	r3, #0
 918:	15930000 	ldrne	r0, [r3]
 91c:	01a00003 	moveq	r0, r3
 920:	e59f3024 	ldr	r3, [pc, #36]	; 94c <__cs3_premain+0x44>
 924:	e3530000 	cmp	r3, #0
 928:	15931000 	ldrne	r1, [r3]
 92c:	01a01003 	moveq	r1, r3
 930:	e3a02000 	mov	r2, #0
 934:	ebfffe86 	bl	354 <main>
 938:	e59f3010 	ldr	r3, [pc, #16]	; 950 <__cs3_premain+0x48>
 93c:	e3530000 	cmp	r3, #0
 940:	1bffff2d 	blne	5fc <exit>
 944:	eafffffe 	b	944 <__cs3_premain+0x3c>
	...
 950:	000005fc 	.word	0x000005fc

00000954 <_exit>:
 954:	e52de004 	push	{lr}		; (str lr, [sp, #-4]!)
 958:	e3a00018 	mov	r0, #24
 95c:	e59f1004 	ldr	r1, [pc, #4]	; 968 <_exit+0x14>
 960:	ef123456 	svc	0x00123456
 964:	eafffffe 	b	964 <_exit+0x10>
 968:	00020026 	.word	0x00020026

0000096c <__cs3_isr_interrupt>:
 96c:	eafffffe 	b	96c <__cs3_isr_interrupt>

00000970 <__cs3_isr_undef>:
 970:	eafffffe 	b	970 <__cs3_isr_undef>

00000974 <__cs3_isr_swi>:
 974:	eafffffe 	b	974 <__cs3_isr_swi>

00000978 <__cs3_isr_pabort>:
 978:	eafffffe 	b	978 <__cs3_isr_pabort>

0000097c <__cs3_isr_dabort>:
 97c:	eafffffe 	b	97c <__cs3_isr_dabort>

00000980 <__cs3_isr_irq>:
 980:	eafffffe 	b	980 <__cs3_isr_irq>

00000984 <__cs3_isr_fiq>:
 984:	eafffffe 	b	984 <__cs3_isr_fiq>

00000988 <__libc_init_array>:
 988:	e92d4070 	push	{r4, r5, r6, lr}
 98c:	e59f506c 	ldr	r5, [pc, #108]	; a00 <__libc_init_array+0x78>
 990:	e59f606c 	ldr	r6, [pc, #108]	; a04 <__libc_init_array+0x7c>
 994:	e0656006 	rsb	r6, r5, r6
 998:	e1b06146 	asrs	r6, r6, #2
 99c:	12455004 	subne	r5, r5, #4
 9a0:	13a04000 	movne	r4, #0
 9a4:	0a000005 	beq	9c0 <__libc_init_array+0x38>
 9a8:	e5b53004 	ldr	r3, [r5, #4]!
 9ac:	e2844001 	add	r4, r4, #1
 9b0:	e1a0e00f 	mov	lr, pc
 9b4:	e12fff13 	bx	r3
 9b8:	e1560004 	cmp	r6, r4
 9bc:	1afffff9 	bne	9a8 <__libc_init_array+0x20>
 9c0:	e59f5040 	ldr	r5, [pc, #64]	; a08 <__libc_init_array+0x80>
 9c4:	e59f6040 	ldr	r6, [pc, #64]	; a0c <__libc_init_array+0x84>
 9c8:	e0656006 	rsb	r6, r5, r6
 9cc:	eb000012 	bl	a1c <_init>
 9d0:	e1b06146 	asrs	r6, r6, #2
 9d4:	12455004 	subne	r5, r5, #4
 9d8:	13a04000 	movne	r4, #0
 9dc:	0a000005 	beq	9f8 <__libc_init_array+0x70>
 9e0:	e5b53004 	ldr	r3, [r5, #4]!
 9e4:	e2844001 	add	r4, r4, #1
 9e8:	e1a0e00f 	mov	lr, pc
 9ec:	e12fff13 	bx	r3
 9f0:	e1560004 	cmp	r6, r4
 9f4:	1afffff9 	bne	9e0 <__libc_init_array+0x58>
 9f8:	e8bd4070 	pop	{r4, r5, r6, lr}
 9fc:	e12fff1e 	bx	lr
 a00:	00000a34 	.word	0x00000a34
 a04:	00000a34 	.word	0x00000a34
 a08:	00000a34 	.word	0x00000a34
 a0c:	00000a3c 	.word	0x00000a3c
